; Function Attrs: mustprogress uwtable
define void @_ZN6casadi15KinsolInterfaceC2ERKNSt7__cxx1112basic_stringIcSt11char_traitsIcESaIcEEERKNS_8FunctionE(ptr noundef nonnull align 8 dereferenceable(1696) %0, ptr noundef nonnull align 8 dereferenceable(32) %1, ptr noundef nonnull align 8 dereferenceable(8) %2) unnamed_addr #3 align 2 personality ptr @__gxx_personality_v0 {
  tail call void @_ZN6casadi10RootfinderC2ERKNSt7__cxx1112basic_stringIcSt11char_traitsIcESaIcEEERKNS_8FunctionE(ptr noundef nonnull align 8 dereferenceable(1592) %0, ptr noundef nonnull align 8 dereferenceable(32) %1, ptr noundef nonnull align 8 dereferenceable(8) %2)
  store ptr getelementptr inbounds ({ [117 x ptr], [3 x ptr] }, ptr @_ZTVN6casadi15KinsolInterfaceE, i64 0, i32 0, i64 2), ptr %0, align 8
  %4 = getelementptr inbounds i8, ptr %0, i64 1520
  store ptr getelementptr inbounds ({ [117 x ptr], [3 x ptr] }, ptr @_ZTVN6casadi15KinsolInterfaceE, i64 0, i32 1, i64 2), ptr %4, align 8
  %5 = getelementptr inbounds i8, ptr %0, i64 1688
  invoke void @_ZN6casadi8FunctionC1Ev(ptr noundef nonnull align 8 dereferenceable(8) %5)
          to label %6 unwind label %15

6:                                                ; preds = %3
  %7 = getelementptr inbounds i8, ptr %0, i64 1592
  %8 = getelementptr inbounds i8, ptr %0, i64 1640
  tail call void @llvm.memset.p0.i64(ptr noundef nonnull align 8 dereferenceable(16) %7, i8 0, i64 16, i1 false)
  store i8 1, ptr %8, align 8
  %9 = getelementptr inbounds i8, ptr %0, i64 1616
  store i8 0, ptr %9, align 8
  %10 = getelementptr inbounds i8, ptr %0, i64 1624
  %11 = getelementptr inbounds i8, ptr %0, i64 1664
  store i64 0, ptr %11, align 8
  %12 = getelementptr inbounds i8, ptr %0, i64 1648
  tail call void @llvm.memset.p0.i64(ptr noundef nonnull align 8 dereferenceable(16) %10, i8 0, i64 16, i1 false)
  %13 = getelementptr inbounds i8, ptr %0, i64 1676
  tail call void @llvm.memset.p0.i64(ptr noundef nonnull align 8 dereferenceable(16) %12, i8 -1, i64 16, i1 false)
  store i8 0, ptr %13, align 4
  %14 = getelementptr inbounds i8, ptr %0, i64 1680
  store double 0x3EB0C6F7A0B5ED8D, ptr %14, align 8
  ret void

15:                                               ; preds = %3
  %16 = landingpad { ptr, i32 }
          cleanup
  tail call void @_ZN6casadi10RootfinderD2Ev(ptr noundef nonnull align 8 dereferenceable(1592) %0) #19
  resume { ptr, i32 } %16
}